target datalayout = "e-m:e-p270:32:32-p271:32:32-p272:64:64-i64:64-i128:128-f80:128-n8:16:32:64-S128"
target triple = "x86_64-pc-linux-gnu"

%class.btVector3 = type { [4 x float] }
%class.btGImpactShapeInterface = type { %class.btConcaveShape.base, %class.btAABB, i8, %class.btVector3, %class.btGImpactQuantizedBvh }
%class.btConcaveShape.base = type <{ %class.btCollisionShape, float }>
%class.btCollisionShape = type { ptr, i32, ptr, i32, i32 }
%class.btAABB = type { %class.btVector3, %class.btVector3 }
%class.btGImpactQuantizedBvh = type { %class.btQuantizedBvhTree, ptr }
%class.btQuantizedBvhTree = type { i32, [4 x i8], %class.GIM_QUANTIZED_BVH_NODE_ARRAY, %class.btAABB, %class.btVector3 }
%class.GIM_QUANTIZED_BVH_NODE_ARRAY = type { %class.btAlignedObjectArray.base, [7 x i8] }
%class.btAlignedObjectArray.base = type <{ [4 x i8], i32, i32, [4 x i8], ptr, i8 }>
%class.btGImpactMeshShape = type { %class.btGImpactShapeInterface, ptr, %class.btAlignedObjectArray.4 }
%class.btAlignedObjectArray.4 = type <{ [4 x i8], i32, i32, [4 x i8], ptr, i8, [7 x i8] }>

; Function Attrs: inlinehint mustprogress nounwind uwtable
define linkonce_odr dso_local noundef nonnull align 8 dereferenceable(8) ptr @_ZNK20btAlignedObjectArrayIP22btGImpactMeshShapePartEixEi(ptr noundef nonnull align 8 dereferenceable(25) %0, i32 noundef %1) #3 comdat align 2 {
  %3 = alloca ptr, align 8
  %4 = alloca i32, align 4
  store ptr %0, ptr %3, align 8, !tbaa !111
  store i32 %1, ptr %4, align 4, !tbaa !9
  %5 = load ptr, ptr %3, align 8
  %6 = getelementptr inbounds nuw %class.btAlignedObjectArray.4, ptr %5, i32 0, i32 4
  %7 = load ptr, ptr %6, align 8, !tbaa !117
  %8 = load i32, ptr %4, align 4, !tbaa !9
  %9 = sext i32 %8 to i64
  %10 = getelementptr inbounds ptr, ptr %7, i64 %9
  ret ptr %10
}

; Function Attrs: inlinehint mustprogress nounwind uwtable
define linkonce_odr dso_local noundef i32 @_ZNK20btAlignedObjectArrayIP22btGImpactMeshShapePartE4sizeEv(ptr noundef nonnull align 8 dereferenceable(25) %0) #3 comdat align 2 {
  %2 = alloca ptr, align 8
  store ptr %0, ptr %2, align 8, !tbaa !111
  %3 = load ptr, ptr %2, align 8
  %4 = getelementptr inbounds nuw %class.btAlignedObjectArray.4, ptr %3, i32 0, i32 1
  %5 = load i32, ptr %4, align 4, !tbaa !113
  ret i32 %5
}

; Function Attrs: mustprogress uwtable
define dso_local void @_ZNK18btGImpactMeshShape22processAllTrianglesRayEP18btTriangleCallbackRK9btVector3S4_(ptr noundef nonnull align 8 dereferenceable(224) %0, ptr noundef %1, ptr noundef nonnull align 4 dereferenceable(16) %2, ptr noundef nonnull align 4 dereferenceable(16) %3) unnamed_addr #2 align 2 {
  %5 = alloca ptr, align 8
  %6 = alloca ptr, align 8
  %7 = alloca ptr, align 8
  %8 = alloca ptr, align 8
  %9 = alloca i32, align 4
  store ptr %0, ptr %5, align 8, !tbaa !87
  store ptr %1, ptr %6, align 8, !tbaa !92
  store ptr %2, ptr %7, align 8, !tbaa !64
  store ptr %3, ptr %8, align 8, !tbaa !64
  %10 = load ptr, ptr %5, align 8
  call void @llvm.lifetime.start.p0(i64 4, ptr %9) #14
  %11 = getelementptr inbounds nuw %class.btGImpactMeshShape, ptr %10, i32 0, i32 2
  %12 = call noundef i32 @_ZNK20btAlignedObjectArrayIP22btGImpactMeshShapePartE4sizeEv(ptr noundef nonnull align 8 dereferenceable(25) %11)
  store i32 %12, ptr %9, align 4, !tbaa !9
  br label %13

13:                                               ; preds = %17, %4
  %14 = load i32, ptr %9, align 4, !tbaa !9
  %15 = add nsw i32 %14, -1
  store i32 %15, ptr %9, align 4, !tbaa !9
  %16 = icmp ne i32 %14, 0
  br i1 %16, label %17, label %28

17:                                               ; preds = %13
  %18 = getelementptr inbounds nuw %class.btGImpactMeshShape, ptr %10, i32 0, i32 2
  %19 = load i32, ptr %9, align 4, !tbaa !9
  %20 = call noundef nonnull align 8 dereferenceable(8) ptr @_ZNK20btAlignedObjectArrayIP22btGImpactMeshShapePartEixEi(ptr noundef nonnull align 8 dereferenceable(25) %18, i32 noundef %19)
  %21 = load ptr, ptr %20, align 8, !tbaa !12
  %22 = load ptr, ptr %6, align 8, !tbaa !92
  %23 = load ptr, ptr %7, align 8, !tbaa !64
  %24 = load ptr, ptr %8, align 8, !tbaa !64
  %25 = load ptr, ptr %21, align 8, !tbaa !16
  %26 = getelementptr inbounds ptr, ptr %25, i64 36
  %27 = load ptr, ptr %26, align 8
  call void %27(ptr noundef nonnull align 8 dereferenceable(280) %21, ptr noundef %22, ptr noundef nonnull align 4 dereferenceable(16) %23, ptr noundef nonnull align 4 dereferenceable(16) %24)
  br label %13, !llvm.loop !118

28:                                               ; preds = %13
  call void @llvm.lifetime.end.p0(i64 4, ptr %9) #14
  ret void
}