; Function Attrs: mustprogress uwtable
define dso_local void @_ZNK18btGImpactMeshShape22processAllTrianglesRayEP18btTriangleCallbackRK9btVector3S4_(ptr noundef nonnull readonly align 8 captures(none) dereferenceable(224) %0, ptr noundef %1, ptr noundef nonnull align 4 dereferenceable(16) %2, ptr noundef nonnull align 4 dereferenceable(16) %3) unnamed_addr #0 align 2 {
  %5 = getelementptr inbounds nuw i8, ptr %0, i64 196
  %6 = load i32, ptr %5, align 4, !tbaa !75
  %.not5 = icmp eq i32 %6, 0
  br i1 %.not5, label %._crit_edge, label %.lr.ph

.lr.ph:                                           ; preds = %4
  %7 = getelementptr inbounds nuw i8, ptr %0, i64 208
  %8 = sext i32 %6 to i64
  br label %9

9:                                                ; preds = %.lr.ph, %9
  %indvars.iv = phi i64 [ %8, %.lr.ph ], [ %indvars.iv.next, %9 ]
  %indvars.iv.next = add nsw i64 %indvars.iv, -1
  %10 = load ptr, ptr %7, align 8, !tbaa !79
  %11 = getelementptr inbounds ptr, ptr %10, i64 %indvars.iv.next
  %12 = load ptr, ptr %11, align 8, !tbaa !80
  %13 = load ptr, ptr %12, align 8, !tbaa !30
  %14 = getelementptr inbounds nuw i8, ptr %13, i64 288
  %15 = load ptr, ptr %14, align 8
  tail call void %15(ptr noundef nonnull align 8 dereferenceable(280) %12, ptr noundef %1, ptr noundef nonnull align 4 dereferenceable(16) %2, ptr noundef nonnull align 4 dereferenceable(16) %3)
  %.not = icmp eq i64 %indvars.iv.next, 0
  br i1 %.not, label %._crit_edge, label %9, !llvm.loop !97

._crit_edge:                                      ; preds = %9, %4
  ret void
}